target datalayout = "e-m:e-p270:32:32-p271:32:32-p272:64:64-i64:64-i128:128-f80:128-n8:16:32:64-S128"
target triple = "x86_64-pc-linux-gnu"

%union.pthread_mutex_t = type { %struct.__pthread_mutex_s }
%struct.__pthread_mutex_s = type { i32, i32, i32, i32, i32, i16, i16, %struct.__pthread_internal_list }
%struct.__pthread_internal_list = type { ptr, ptr }
%struct.pmix_tma = type { ptr, ptr, ptr, ptr, ptr, ptr, ptr, ptr }
%struct.pmix_mca_base_var_enum_t = type { %struct.pmix_object_t, i8, ptr, ptr, ptr, ptr, ptr, ptr, i32, ptr }
%struct.pmix_object_t = type { %union.pthread_mutex_t, ptr, i32, %struct.pmix_tma }
%struct.pmix_mca_base_var_enum_value_t = type { i32, ptr }

; Function Attrs: nounwind uwtable
define internal i32 @enum_value_from_string(ptr noundef %0, ptr noundef %1, ptr noundef %2) #0 {
  %4 = alloca i32, align 4
  %5 = alloca ptr, align 8
  %6 = alloca ptr, align 8
  %7 = alloca ptr, align 8
  %8 = alloca i32, align 4
  %9 = alloca i32, align 4
  %10 = alloca i32, align 4
  %11 = alloca i32, align 4
  %12 = alloca i8, align 1
  %13 = alloca ptr, align 8
  %14 = alloca i32, align 4
  store ptr %0, ptr %5, align 8, !tbaa !3
  store ptr %1, ptr %6, align 8, !tbaa !49
  store ptr %2, ptr %7, align 8, !tbaa !45
  call void @llvm.lifetime.start.p0(i64 4, ptr %8) #13
  call void @llvm.lifetime.start.p0(i64 4, ptr %9) #13
  call void @llvm.lifetime.start.p0(i64 4, ptr %10) #13
  call void @llvm.lifetime.start.p0(i64 4, ptr %11) #13
  call void @llvm.lifetime.start.p0(i64 1, ptr %12) #13
  call void @llvm.lifetime.start.p0(i64 8, ptr %13) #13
  %15 = load ptr, ptr %5, align 8, !tbaa !3
  %16 = getelementptr inbounds nuw %struct.pmix_mca_base_var_enum_t, ptr %15, i32 0, i32 3
  %17 = load ptr, ptr %16, align 8, !tbaa !17
  %18 = load ptr, ptr %5, align 8, !tbaa !3
  %19 = call i32 %17(ptr noundef %18, ptr noundef %9)
  store i32 %19, ptr %10, align 4, !tbaa !24
  %20 = load i32, ptr %10, align 4, !tbaa !24
  %21 = icmp ne i32 0, %20
  br i1 %21, label %22, label %24

22:                                               ; preds = %3
  %23 = load i32, ptr %10, align 4, !tbaa !24
  store i32 %23, ptr %4, align 4
  store i32 1, ptr %14, align 4
  br label %84

24:                                               ; preds = %3
  %25 = load ptr, ptr %6, align 8, !tbaa !49
  %26 = call i64 @strtol(ptr noundef %25, ptr noundef %13, i32 noundef 0) #13
  %27 = trunc i64 %26 to i32
  store i32 %27, ptr %8, align 4, !tbaa !24
  %28 = load ptr, ptr %13, align 8, !tbaa !49
  %29 = getelementptr inbounds i8, ptr %28, i64 0
  %30 = load i8, ptr %29, align 1, !tbaa !50
  %31 = sext i8 %30 to i32
  %32 = icmp eq i32 %31, 0
  %33 = zext i1 %32 to i8
  store i8 %33, ptr %12, align 1, !tbaa !95
  store i32 0, ptr %11, align 4, !tbaa !24
  br label %34

34:                                               ; preds = %66, %24
  %35 = load i32, ptr %11, align 4, !tbaa !24
  %36 = load i32, ptr %9, align 4, !tbaa !24
  %37 = icmp slt i32 %35, %36
  br i1 %37, label %38, label %69

38:                                               ; preds = %34
  %39 = load i8, ptr %12, align 1, !tbaa !95, !range !96, !noundef !97
  %40 = trunc i8 %39 to i1
  br i1 %40, label %41, label %52

41:                                               ; preds = %38
  %42 = load i32, ptr %8, align 4, !tbaa !24
  %43 = load ptr, ptr %5, align 8, !tbaa !3
  %44 = getelementptr inbounds nuw %struct.pmix_mca_base_var_enum_t, ptr %43, i32 0, i32 9
  %45 = load ptr, ptr %44, align 8, !tbaa !23
  %46 = load i32, ptr %11, align 4, !tbaa !24
  %47 = sext i32 %46 to i64
  %48 = getelementptr inbounds %struct.pmix_mca_base_var_enum_value_t, ptr %45, i64 %47
  %49 = getelementptr inbounds nuw %struct.pmix_mca_base_var_enum_value_t, ptr %48, i32 0, i32 0
  %50 = load i32, ptr %49, align 8, !tbaa !51
  %51 = icmp eq i32 %42, %50
  br i1 %51, label %64, label %52

52:                                               ; preds = %41, %38
  %53 = load ptr, ptr %6, align 8, !tbaa !49
  %54 = load ptr, ptr %5, align 8, !tbaa !3
  %55 = getelementptr inbounds nuw %struct.pmix_mca_base_var_enum_t, ptr %54, i32 0, i32 9
  %56 = load ptr, ptr %55, align 8, !tbaa !23
  %57 = load i32, ptr %11, align 4, !tbaa !24
  %58 = sext i32 %57 to i64
  %59 = getelementptr inbounds %struct.pmix_mca_base_var_enum_value_t, ptr %56, i64 %58
  %60 = getelementptr inbounds nuw %struct.pmix_mca_base_var_enum_value_t, ptr %59, i32 0, i32 1
  %61 = load ptr, ptr %60, align 8, !tbaa !26
  %62 = call i32 @strcasecmp(ptr noundef %53, ptr noundef %61) #14
  %63 = icmp eq i32 0, %62
  br i1 %63, label %64, label %65

64:                                               ; preds = %52, %41
  br label %69

65:                                               ; preds = %52
  br label %66

66:                                               ; preds = %65
  %67 = load i32, ptr %11, align 4, !tbaa !24
  %68 = add nsw i32 %67, 1
  store i32 %68, ptr %11, align 4, !tbaa !24
  br label %34, !llvm.loop !98

69:                                               ; preds = %64, %34
  %70 = load i32, ptr %11, align 4, !tbaa !24
  %71 = load i32, ptr %9, align 4, !tbaa !24
  %72 = icmp eq i32 %70, %71
  br i1 %72, label %73, label %74

73:                                               ; preds = %69
  store i32 -65, ptr %4, align 4
  store i32 1, ptr %14, align 4
  br label %84

74:                                               ; preds = %69
  %75 = load ptr, ptr %5, align 8, !tbaa !3
  %76 = getelementptr inbounds nuw %struct.pmix_mca_base_var_enum_t, ptr %75, i32 0, i32 9
  %77 = load ptr, ptr %76, align 8, !tbaa !23
  %78 = load i32, ptr %11, align 4, !tbaa !24
  %79 = sext i32 %78 to i64
  %80 = getelementptr inbounds %struct.pmix_mca_base_var_enum_value_t, ptr %77, i64 %79
  %81 = getelementptr inbounds nuw %struct.pmix_mca_base_var_enum_value_t, ptr %80, i32 0, i32 0
  %82 = load i32, ptr %81, align 8, !tbaa !51
  %83 = load ptr, ptr %7, align 8, !tbaa !45
  store i32 %82, ptr %83, align 4, !tbaa !24
  store i32 0, ptr %4, align 4
  store i32 1, ptr %14, align 4
  br label %84

84:                                               ; preds = %74, %73, %22
  call void @llvm.lifetime.end.p0(i64 8, ptr %13) #13
  call void @llvm.lifetime.end.p0(i64 1, ptr %12) #13
  call void @llvm.lifetime.end.p0(i64 4, ptr %11) #13
  call void @llvm.lifetime.end.p0(i64 4, ptr %10) #13
  call void @llvm.lifetime.end.p0(i64 4, ptr %9) #13
  call void @llvm.lifetime.end.p0(i64 4, ptr %8) #13
  %85 = load i32, ptr %4, align 4
  ret i32 %85
}