; Function Attrs: nounwind uwtable
define internal i32 @enum_value_from_string(ptr noundef %0, ptr noundef %1, ptr noundef writeonly captures(none) %2) #1 {
  %4 = alloca i32, align 4
  %5 = alloca ptr, align 8
  call void @llvm.lifetime.start.p0(i64 4, ptr nonnull %4) #21
  call void @llvm.lifetime.start.p0(i64 8, ptr nonnull %5) #21
  %6 = getelementptr inbounds nuw i8, ptr %0, i64 136
  %7 = load ptr, ptr %6, align 8, !tbaa !15
  %8 = call i32 %7(ptr noundef %0, ptr noundef nonnull %4) #21
  %.not = icmp eq i32 %8, 0
  br i1 %.not, label %9, label %._crit_edge.thread

9:                                                ; preds = %3
  %10 = call i64 @strtol(ptr noundef %1, ptr noundef nonnull %5, i32 noundef 0) #21
  %11 = trunc i64 %10 to i32
  %12 = getelementptr inbounds nuw i8, ptr %0, i64 184
  %13 = load i32, ptr %4, align 4, !tbaa !40
  %14 = icmp sgt i32 %13, 0
  br i1 %14, label %.lr.ph, label %._crit_edge

.lr.ph:                                           ; preds = %9
  %15 = load ptr, ptr %5, align 8, !tbaa !41
  %16 = load i8, ptr %15, align 1, !tbaa !42
  %17 = icmp eq i8 %16, 0
  %18 = load ptr, ptr %12, align 8, !tbaa !21
  %wide.trip.count39 = zext nneg i32 %13 to i64
  br i1 %17, label %.lr.ph.split.us, label %.lr.ph.split

.lr.ph.split.us:                                  ; preds = %.lr.ph, %27
  %indvars.iv36 = phi i64 [ %indvars.iv.next37, %27 ], [ 0, %.lr.ph ]
  %19 = getelementptr inbounds nuw %struct.pmix_mca_base_var_enum_value_t, ptr %18, i64 %indvars.iv36
  %20 = load i32, ptr %19, align 8, !tbaa !43
  %21 = icmp eq i32 %20, %11
  br i1 %21, label %._crit_edge.loopexit, label %22

22:                                               ; preds = %.lr.ph.split.us
  %23 = getelementptr inbounds nuw %struct.pmix_mca_base_var_enum_value_t, ptr %18, i64 %indvars.iv36, i32 1
  %24 = load ptr, ptr %23, align 8, !tbaa !23
  %25 = call i32 @strcasecmp(ptr noundef %1, ptr noundef %24) #22
  %26 = icmp eq i32 %25, 0
  br i1 %26, label %._crit_edge.loopexit, label %27

27:                                               ; preds = %22
  %indvars.iv.next37 = add nuw nsw i64 %indvars.iv36, 1
  %exitcond40.not = icmp eq i64 %indvars.iv.next37, %wide.trip.count39
  br i1 %exitcond40.not, label %._crit_edge.thread, label %.lr.ph.split.us, !llvm.loop !70

.lr.ph.split:                                     ; preds = %.lr.ph, %32
  %indvars.iv = phi i64 [ %indvars.iv.next, %32 ], [ 0, %.lr.ph ]
  %28 = getelementptr inbounds nuw %struct.pmix_mca_base_var_enum_value_t, ptr %18, i64 %indvars.iv, i32 1
  %29 = load ptr, ptr %28, align 8, !tbaa !23
  %30 = call i32 @strcasecmp(ptr noundef %1, ptr noundef %29) #22
  %31 = icmp eq i32 %30, 0
  br i1 %31, label %._crit_edge.loopexit42, label %32

32:                                               ; preds = %.lr.ph.split
  %indvars.iv.next = add nuw nsw i64 %indvars.iv, 1
  %exitcond.not = icmp eq i64 %indvars.iv.next, %wide.trip.count39
  br i1 %exitcond.not, label %._crit_edge.thread, label %.lr.ph.split, !llvm.loop !70

._crit_edge.loopexit:                             ; preds = %.lr.ph.split.us, %22
  %33 = trunc nuw nsw i64 %indvars.iv36 to i32
  br label %._crit_edge

._crit_edge.loopexit42:                           ; preds = %.lr.ph.split
  %34 = trunc nuw nsw i64 %indvars.iv to i32
  br label %._crit_edge

._crit_edge:                                      ; preds = %._crit_edge.loopexit42, %._crit_edge.loopexit, %9
  %.018.lcssa = phi i32 [ 0, %9 ], [ %33, %._crit_edge.loopexit ], [ %34, %._crit_edge.loopexit42 ]
  %35 = icmp eq i32 %.018.lcssa, %13
  br i1 %35, label %._crit_edge.thread, label %36

36:                                               ; preds = %._crit_edge
  %37 = load ptr, ptr %12, align 8, !tbaa !21
  %38 = zext nneg i32 %.018.lcssa to i64
  %39 = getelementptr inbounds nuw %struct.pmix_mca_base_var_enum_value_t, ptr %37, i64 %38
  %40 = load i32, ptr %39, align 8, !tbaa !43
  store i32 %40, ptr %2, align 4, !tbaa !40
  br label %._crit_edge.thread

._crit_edge.thread:                               ; preds = %32, %27, %._crit_edge, %3, %36
  %.0 = phi i32 [ 0, %36 ], [ %8, %3 ], [ -65, %._crit_edge ], [ -65, %27 ], [ -65, %32 ]
  call void @llvm.lifetime.end.p0(i64 8, ptr nonnull %5) #21
  call void @llvm.lifetime.end.p0(i64 4, ptr nonnull %4) #21
  ret i32 %.0
}